target datalayout = "e-m:e-p270:32:32-p271:32:32-p272:64:64-i64:64-i128:128-f80:128-n8:16:32:64-S128"
target triple = "x86_64-unknown-linux-gnu"

%"class.icu_75::UnicodeString" = type { %"class.icu_75::Replaceable", %"union.icu_75::UnicodeString::StackBufferOrFields" }
%"class.icu_75::Replaceable" = type { %"class.icu_75::UObject" }
%"class.icu_75::UObject" = type { ptr }
%"union.icu_75::UnicodeString::StackBufferOrFields" = type { %struct.anon.0, [32 x i8] }
%struct.anon.0 = type { i16, i32, i32, ptr }
%"class.icu_75::UCharsTrieBuilder" = type { %"class.icu_75::StringTrieBuilder", %"class.icu_75::UnicodeString", ptr, i32, i32, ptr, i32, i32 }
%"class.icu_75::StringTrieBuilder" = type { %"class.icu_75::UObject", ptr }
%"class.icu_75::ConstChar16Ptr" = type { ptr }

; Function Attrs: mustprogress nounwind uwtable
define linkonce_odr void @_ZN6icu_7514ConstChar16PtrD2Ev(ptr noundef nonnull align 8 dereferenceable(8) %this) unnamed_addr #1 comdat align 2 {
entry:
  %this.addr = alloca ptr, align 8
  store ptr %this, ptr %this.addr, align 8
  %this1 = load ptr, ptr %this.addr, align 8
  %p_ = getelementptr inbounds %"class.icu_75::ConstChar16Ptr", ptr %this1, i32 0, i32 0
  %0 = load ptr, ptr %p_, align 8
  call void asm sideeffect "", "rm,~{memory},~{dirflag},~{fpsr},~{flags}"(ptr %0) #8, !srcloc !6
  ret void
}

; Function Attrs: mustprogress nounwind uwtable
define linkonce_odr void @_ZN6icu_7514ConstChar16PtrC2EPKDs(ptr noundef nonnull align 8 dereferenceable(8) %this, ptr noundef %p) unnamed_addr #1 comdat align 2 {
entry:
  %this.addr = alloca ptr, align 8
  %p.addr = alloca ptr, align 8
  store ptr %this, ptr %this.addr, align 8
  store ptr %p, ptr %p.addr, align 8
  %this1 = load ptr, ptr %this.addr, align 8
  %p_ = getelementptr inbounds %"class.icu_75::ConstChar16Ptr", ptr %this1, i32 0, i32 0
  %0 = load ptr, ptr %p.addr, align 8
  store ptr %0, ptr %p_, align 8
  ret void
}

; Function Attrs: mustprogress nounwind uwtable
define internal noundef signext i8 @_ZL9U_SUCCESS10UErrorCode(i32 noundef %code) #1 {
entry:
  %code.addr = alloca i32, align 4
  store i32 %code, ptr %code.addr, align 4
  %0 = load i32, ptr %code.addr, align 4
  %cmp = icmp sle i32 %0, 0
  %conv = zext i1 %cmp to i8
  ret i8 %conv
}

; Function Attrs: mustprogress uwtable
define noundef nonnull align 8 dereferenceable(64) ptr @_ZN6icu_7517UCharsTrieBuilder18buildUnicodeStringE22UStringTrieBuildOptionRNS_13UnicodeStringER10UErrorCode(ptr noundef nonnull align 8 dereferenceable(112) %this, i32 noundef %buildOption, ptr noundef nonnull align 8 dereferenceable(64) %result, ptr noundef nonnull align 4 dereferenceable(4) %errorCode) #0 align 2 personality ptr @__gxx_personality_v0 {
entry:
  %this.addr = alloca ptr, align 8
  %buildOption.addr = alloca i32, align 4
  %result.addr = alloca ptr, align 8
  %errorCode.addr = alloca ptr, align 8
  %agg.tmp = alloca %"class.icu_75::ConstChar16Ptr", align 8
  %exn.slot = alloca ptr, align 8
  %ehselector.slot = alloca i32, align 4
  store ptr %this, ptr %this.addr, align 8
  store i32 %buildOption, ptr %buildOption.addr, align 4
  store ptr %result, ptr %result.addr, align 8
  store ptr %errorCode, ptr %errorCode.addr, align 8
  %this1 = load ptr, ptr %this.addr, align 8
  %0 = load i32, ptr %buildOption.addr, align 4
  %1 = load ptr, ptr %errorCode.addr, align 8
  call void @_ZN6icu_7517UCharsTrieBuilder11buildUCharsE22UStringTrieBuildOptionR10UErrorCode(ptr noundef nonnull align 8 dereferenceable(112) %this1, i32 noundef %0, ptr noundef nonnull align 4 dereferenceable(4) %1)
  %2 = load ptr, ptr %errorCode.addr, align 8
  %3 = load i32, ptr %2, align 4
  %call = call noundef signext i8 @_ZL9U_SUCCESS10UErrorCode(i32 noundef %3)
  %tobool = icmp ne i8 %call, 0
  br i1 %tobool, label %if.then, label %if.end

if.then:                                          ; preds = %entry
  %4 = load ptr, ptr %result.addr, align 8
  %uchars = getelementptr inbounds %"class.icu_75::UCharsTrieBuilder", ptr %this1, i32 0, i32 5
  %5 = load ptr, ptr %uchars, align 8
  %ucharsCapacity = getelementptr inbounds %"class.icu_75::UCharsTrieBuilder", ptr %this1, i32 0, i32 6
  %6 = load i32, ptr %ucharsCapacity, align 8
  %ucharsLength = getelementptr inbounds %"class.icu_75::UCharsTrieBuilder", ptr %this1, i32 0, i32 7
  %7 = load i32, ptr %ucharsLength, align 4
  %sub = sub nsw i32 %6, %7
  %idx.ext = sext i32 %sub to i64
  %add.ptr = getelementptr inbounds i16, ptr %5, i64 %idx.ext
  call void @_ZN6icu_7514ConstChar16PtrC2EPKDs(ptr noundef nonnull align 8 dereferenceable(8) %agg.tmp, ptr noundef %add.ptr)
  %ucharsLength2 = getelementptr inbounds %"class.icu_75::UCharsTrieBuilder", ptr %this1, i32 0, i32 7
  %8 = load i32, ptr %ucharsLength2, align 4
  %call3 = invoke noundef nonnull align 8 dereferenceable(64) ptr @_ZN6icu_7513UnicodeString5setToEaNS_14ConstChar16PtrEi(ptr noundef nonnull align 8 dereferenceable(64) %4, i8 noundef signext 0, ptr noundef %agg.tmp, i32 noundef %8)
          to label %invoke.cont unwind label %lpad

invoke.cont:                                      ; preds = %if.then
  call void @_ZN6icu_7514ConstChar16PtrD2Ev(ptr noundef nonnull align 8 dereferenceable(8) %agg.tmp) #8
  br label %if.end

lpad:                                             ; preds = %if.then
  %9 = landingpad { ptr, i32 }
          cleanup
  %10 = extractvalue { ptr, i32 } %9, 0
  store ptr %10, ptr %exn.slot, align 8
  %11 = extractvalue { ptr, i32 } %9, 1
  store i32 %11, ptr %ehselector.slot, align 4
  call void @_ZN6icu_7514ConstChar16PtrD2Ev(ptr noundef nonnull align 8 dereferenceable(8) %agg.tmp) #8
  br label %eh.resume

if.end:                                           ; preds = %invoke.cont, %entry
  %12 = load ptr, ptr %result.addr, align 8
  ret ptr %12

eh.resume:                                        ; preds = %lpad
  %exn = load ptr, ptr %exn.slot, align 8
  %sel = load i32, ptr %ehselector.slot, align 4
  %lpad.val = insertvalue { ptr, i32 } poison, ptr %exn, 0
  %lpad.val4 = insertvalue { ptr, i32 } %lpad.val, i32 %sel, 1
  resume { ptr, i32 } %lpad.val4
}