; Function Attrs: mustprogress uwtable
define noundef nonnull align 8 dereferenceable(64) ptr @_ZN6icu_7517UCharsTrieBuilder18buildUnicodeStringE22UStringTrieBuildOptionRNS_13UnicodeStringER10UErrorCode(ptr noundef nonnull align 8 dereferenceable(112) %this, i32 noundef %buildOption, ptr noundef nonnull returned align 8 dereferenceable(64) %result, ptr noundef nonnull align 4 dereferenceable(4) %errorCode) local_unnamed_addr #0 align 2 personality ptr @__gxx_personality_v0 {
entry:
  %agg.tmp = alloca %"class.icu_75::ConstChar16Ptr", align 8
  tail call void @_ZN6icu_7517UCharsTrieBuilder11buildUCharsE22UStringTrieBuildOptionR10UErrorCode(ptr noundef nonnull align 8 dereferenceable(112) %this, i32 noundef %buildOption, ptr noundef nonnull align 4 dereferenceable(4) %errorCode)
  %0 = load i32, ptr %errorCode, align 4
  %cmp.i = icmp sgt i32 %0, 0
  br i1 %cmp.i, label %if.end, label %if.then

if.then:                                          ; preds = %entry
  %uchars = getelementptr inbounds i8, ptr %this, i64 96
  %1 = load ptr, ptr %uchars, align 8
  %ucharsCapacity = getelementptr inbounds i8, ptr %this, i64 104
  %2 = load i32, ptr %ucharsCapacity, align 8
  %ucharsLength = getelementptr inbounds i8, ptr %this, i64 108
  %3 = load i32, ptr %ucharsLength, align 4
  %sub = sub nsw i32 %2, %3
  %idx.ext = sext i32 %sub to i64
  %add.ptr = getelementptr inbounds i16, ptr %1, i64 %idx.ext
  store ptr %add.ptr, ptr %agg.tmp, align 8
  %call3 = invoke noundef nonnull align 8 dereferenceable(64) ptr @_ZN6icu_7513UnicodeString5setToEaNS_14ConstChar16PtrEi(ptr noundef nonnull align 8 dereferenceable(64) %result, i8 noundef signext 0, ptr noundef nonnull %agg.tmp, i32 noundef %3)
          to label %invoke.cont unwind label %lpad

invoke.cont:                                      ; preds = %if.then
  %4 = load ptr, ptr %agg.tmp, align 8
  call void asm sideeffect "", "rm,~{memory},~{dirflag},~{fpsr},~{flags}"(ptr %4) #11, !srcloc !15
  br label %if.end

lpad:                                             ; preds = %if.then
  %5 = landingpad { ptr, i32 }
          cleanup
  %6 = load ptr, ptr %agg.tmp, align 8
  call void asm sideeffect "", "rm,~{memory},~{dirflag},~{fpsr},~{flags}"(ptr %6) #11, !srcloc !15
  resume { ptr, i32 } %5

if.end:                                           ; preds = %invoke.cont, %entry
  ret ptr %result
}